target datalayout = "e-m:e-p270:32:32-p271:32:32-p272:64:64-i64:64-i128:128-f80:128-n8:16:32:64-S128"
target triple = "x86_64-unknown-linux-gnu"

%struct.nla_policy = type { i8, i8, i16, %union.anon }
%union.anon = type { ptr }
%struct.ethnl_request_ops = type { i8, i8, i16, i32, i32, i8, i8, ptr, ptr, ptr, ptr, ptr, ptr, ptr }

@ethnl_header_policy = external dso_local constant [4 x %struct.nla_policy], align 16
@ethnl_phc_vclocks_get_policy = dso_local local_unnamed_addr constant [2 x %struct.nla_policy] [%struct.nla_policy zeroinitializer, %struct.nla_policy { i8 8, i8 0, i16 3, %union.anon { ptr @ethnl_header_policy } }], align 16
@ethnl_phc_vclocks_request_ops = dso_local local_unnamed_addr constant %struct.ethnl_request_ops { i8 33, i8 34, i16 1, i32 16, i32 24, i8 0, i8 0, ptr null, ptr @phc_vclocks_prepare_data, ptr @phc_vclocks_reply_size, ptr @phc_vclocks_fill_reply, ptr @phc_vclocks_cleanup_data, ptr null, ptr null }, align 8

; Function Attrs: fn_ret_thunk_extern nounwind null_pointer_is_valid
define internal i32 @phc_vclocks_prepare_data(ptr nocapture readnone %0, ptr noundef %1, ptr nocapture readnone %2) #0 align 16 {
  %4 = load ptr, ptr %1, align 8
  %5 = tail call i32 @ethnl_ops_begin(ptr noundef %4) #4
  %6 = icmp slt i32 %5, 0
  br i1 %6, label %11, label %7

7:                                                ; preds = %3
  %8 = getelementptr inbounds i8, ptr %1, i64 16
  %9 = tail call i32 @ethtool_get_phc_vclocks(ptr noundef %4, ptr noundef %8) #4
  %10 = getelementptr inbounds i8, ptr %1, i64 8
  store i32 %9, ptr %10, align 8
  tail call void @ethnl_ops_complete(ptr noundef %4) #4
  br label %11

11:                                               ; preds = %7, %3
  ret i32 %5
}

; Function Attrs: fn_ret_thunk_extern mustprogress nofree norecurse nosync nounwind null_pointer_is_valid willreturn memory(argmem: read)
define internal i32 @phc_vclocks_reply_size(ptr nocapture readnone %0, ptr nocapture noundef readonly %1) #1 align 16 {
  %3 = getelementptr inbounds i8, ptr %1, i64 8
  %4 = load i32, ptr %3, align 8
  %5 = icmp sgt i32 %4, 0
  %6 = shl i32 %4, 2
  %7 = add i32 %6, 7
  %8 = and i32 %7, -4
  %9 = add i32 %8, 8
  %10 = select i1 %5, i32 %9, i32 0
  ret i32 %10
}

; Function Attrs: fn_ret_thunk_extern nounwind null_pointer_is_valid
define internal i32 @phc_vclocks_fill_reply(ptr noundef %0, ptr nocapture readnone %1, ptr nocapture noundef readonly %2) #0 align 16 {
  %4 = alloca i32, align 4
  %5 = getelementptr inbounds i8, ptr %2, i64 8
  %6 = load i32, ptr %5, align 8
  %7 = icmp slt i32 %6, 1
  br i1 %7, label %19, label %8

8:                                                ; preds = %3
  call void @llvm.lifetime.start.p0(i64 4, ptr nonnull %4) #4
  store i32 %6, ptr %4, align 4
  %9 = call i32 @nla_put(ptr noundef %0, i32 noundef 2, i32 noundef 4, ptr noundef nonnull %4) #4
  call void @llvm.lifetime.end.p0(i64 4, ptr nonnull %4) #4
  %10 = icmp eq i32 %9, 0
  br i1 %10, label %11, label %19

11:                                               ; preds = %8
  %12 = load i32, ptr %5, align 8
  %13 = shl i32 %12, 2
  %14 = getelementptr inbounds i8, ptr %2, i64 16
  %15 = load ptr, ptr %14, align 8
  %16 = call i32 @nla_put(ptr noundef %0, i32 noundef 3, i32 noundef %13, ptr noundef %15) #4
  %17 = icmp eq i32 %16, 0
  %18 = select i1 %17, i32 0, i32 -90
  br label %19

19:                                               ; preds = %11, %8, %3
  %20 = phi i32 [ 0, %3 ], [ -90, %8 ], [ %18, %11 ]
  ret i32 %20
}

; Function Attrs: fn_ret_thunk_extern nounwind null_pointer_is_valid
define internal void @phc_vclocks_cleanup_data(ptr nocapture noundef readonly %0) #0 align 16 {
  %2 = getelementptr inbounds i8, ptr %0, i64 16
  %3 = load ptr, ptr %2, align 8
  tail call void @kfree(ptr noundef %3) #4
  ret void
}

; Function Attrs: nocallback nofree nosync nounwind willreturn memory(argmem: readwrite)
declare void @llvm.lifetime.start.p0(i64 immarg, ptr nocapture) #2

; Function Attrs: nocallback nofree nosync nounwind willreturn memory(argmem: readwrite)
declare void @llvm.lifetime.end.p0(i64 immarg, ptr nocapture) #2

; Function Attrs: null_pointer_is_valid
declare dso_local i32 @ethnl_ops_begin(ptr noundef) local_unnamed_addr #3

; Function Attrs: null_pointer_is_valid
declare dso_local i32 @ethtool_get_phc_vclocks(ptr noundef, ptr noundef) local_unnamed_addr #3

; Function Attrs: null_pointer_is_valid
declare dso_local void @ethnl_ops_complete(ptr noundef) local_unnamed_addr #3

; Function Attrs: null_pointer_is_valid
declare dso_local i32 @nla_put(ptr noundef, i32 noundef, i32 noundef, ptr noundef) local_unnamed_addr #3

; Function Attrs: null_pointer_is_valid
declare dso_local void @kfree(ptr noundef) local_unnamed_addr #3


!llvm.module.flags = !{!0, !1, !2, !3, !4}

!0 = !{i32 1, !"wchar_size", i32 2}
!1 = !{i32 8, !"cf-protection-branch", i32 1}
!2 = !{i32 4, !"function_return_thunk_extern", i32 1}
!3 = !{i32 4, !"indirect_branch_cs_prefix", i32 1}
!4 = !{i32 4, !"SkipRaxSetup", i32 1}
